(lp1
(lp2
I255
aI255
aI255
aI255
aI255
aI255
aI255
aI255
aI255
aI255
aI255
aI255
aI255
aI255
aI0
aI0
aI0
aI0
aI0
aI0
aI0
aI0
aI0
aI0
aa(lp3
I255
aI255
aI255
aI255
aI255
aI255
aI255
aI255
aI255
aI255
aI255
aI255
aI255
aI255
aI0
aI0
aI0
aI0
aI0
aI0
aI0
aI0
aI0
aI0
aa(lp4
I255
aI255
aI255
aI255
aI255
aI255
aI255
aI255
aI255
aI255
aI255
aI255
aI255
aI255
aI0
aI0
aI0
aI0
aI0
aI0
aI0
aI0
aI0
aI0
aa(lp5
I255
aI255
aI255
aI255
aI255
aI255
aI255
aI255
aI255
aI255
aI255
aI255
aI255
aI255
aI0
aI0
aI0
aI0
aI0
aI0
aI0
aI0
aI0
aI0
aa(lp6
I255
aI255
aI255
aI255
aI255
aI255
aI255
aI255
aI255
aI255
aI255
aI255
aI255
aI255
aI255
aI0
aI0
aI0
aI0
aI0
aI0
aI0
aI0
aI0
aa(lp7
I255
aI255
aI255
aI255
aI255
aI255
aI255
aI255
aI255
aI255
aI255
aI255
aI255
aI255
aI0
aI0
aI0
aI0
aI0
aI0
aI0
aI0
aI0
aI0
aa(lp8
I255
aI255
aI255
aI255
aI255
aI255
aI255
aI255
aI255
aI255
aI255
aI255
aI255
aI255
aI0
aI0
aI0
aI0
aI0
aI0
aI0
aI0
aI0
aI0
aa(lp9
I255
aI255
aI255
aI255
aI255
aI255
aI255
aI255
aI255
aI255
aI255
aI255
aI255
aI255
aI0
aI0
aI0
aI0
aI0
aI0
aI0
aI0
aI0
aI0
aa(lp10
I255
aI255
aI255
aI255
aI255
aI255
aI255
aI255
aI255
aI255
aI255
aI255
aI255
aI255
aI255
aI0
aI0
aI0
aI0
aI0
aI0
aI0
aI0
aI0
aa(lp11
I255
aI255
aI255
aI255
aI255
aI255
aI255
aI255
aI255
aI255
aI255
aI255
aI255
aI255
aI0
aI0
aI0
aI0
aI0
aI0
aI0
aI0
aI0
aI0
aa(lp12
I255
aI255
aI255
aI255
aI255
aI255
aI255
aI255
aI255
aI255
aI255
aI255
aI255
aI255
aI0
aI0
aI0
aI0
aI0
aI0
aI0
aI0
aI0
aI0
aa(lp13
I255
aI255
aI255
aI255
aI255
aI255
aI255
aI255
aI255
aI255
aI255
aI255
aI255
aI255
aI0
aI0
aI0
aI0
aI0
aI0
aI0
aI0
aI0
aI0
aa(lp14
I255
aI255
aI255
aI255
aI255
aI255
aI255
aI255
aI255
aI255
aI255
aI255
aI255
aI255
aI255
aI0
aI0
aI0
aI0
aI0
aI0
aI0
aI0
aI0
aa(lp15
I255
aI255
aI255
aI255
aI255
aI255
aI255
aI255
aI255
aI255
aI255
aI255
aI255
aI255
aI0
aI0
aI0
aI0
aI0
aI0
aI0
aI0
aI0
aI0
aa(lp16
I255
aI255
aI255
aI255
aI255
aI255
aI255
aI255
aI255
aI255
aI255
aI255
aI255
aI255
aI0
aI0
aI0
aI0
aI0
aI0
aI0
aI0
aI0
aI0
aa(lp17
I255
aI255
aI255
aI255
aI255
aI255
aI255
aI255
aI255
aI255
aI255
aI255
aI255
aI255
aI255
aI0
aI0
aI0
aI0
aI0
aI0
aI0
aI0
aI0
aa(lp18
I255
aI255
aI255
aI255
aI255
aI255
aI255
aI255
aI255
aI255
aI255
aI255
aI255
aI255
aI255
aI0
aI0
aI0
aI0
aI0
aI0
aI0
aI0
aI0
aa(lp19
I255
aI255
aI255
aI255
aI255
aI255
aI255
aI255
aI255
aI255
aI255
aI255
aI255
aI255
aI0
aI0
aI0
aI0
aI0
aI0
aI0
aI0
aI0
aI0
aa(lp20
I255
aI255
aI255
aI255
aI255
aI255
aI255
aI255
aI255
aI255
aI255
aI255
aI255
aI255
aI0
aI0
aI0
aI0
aI0
aI0
aI0
aI0
aI0
aI0
aa.